target datalayout = "e-m:e-p270:32:32-p271:32:32-p272:64:64-i64:64-i128:128-f80:128-n8:16:32:64-S128"
target triple = "x86_64-pc-linux-gnu"

%struct.RelFileLocator = type { i32, i32, i32 }
%struct.XLogReaderRoutine = type { ptr, ptr, ptr }
%struct.XLogRecord = type { i32, i32, i64, i8, i8, i32 }
%struct.XLogReaderState = type { %struct.XLogReaderRoutine, i64, ptr, i64, i64, i64, i64, i64, i64, i64, i64, ptr, ptr, i64, i8, ptr, ptr, ptr, ptr, ptr, i32, %struct.WALSegmentContext, %struct.WALOpenSegment, i32, i64, i32, i64, i32, i64, i32, ptr, i32, ptr, i8, i8 }
%struct.WALSegmentContext = type { [1024 x i8], i32 }
%struct.WALOpenSegment = type { i32, i64, i32 }
%struct.DecodedXLogRecord = type { i64, i8, ptr, i64, i64, %struct.XLogRecord, i16, i32, ptr, i32, i32, [0 x %struct.DecodedBkpBlock] }
%struct.DecodedBkpBlock = type { i8, %struct.RelFileLocator, i32, i32, i32, i8, i8, i8, ptr, i16, i16, i16, i8, i8, ptr, i16, i16 }

; Function Attrs: nounwind uwtable
define internal zeroext i1 @XLogRecordMatchesRelationBlock(ptr noundef %0, i64 %1, i32 %2, i32 noundef %3, i32 noundef %4) #0 {
  %6 = alloca i1, align 1
  %7 = alloca %struct.RelFileLocator, align 4
  %8 = alloca { i64, i32 }, align 4
  %9 = alloca ptr, align 8
  %10 = alloca i32, align 4
  %11 = alloca i32, align 4
  %12 = alloca i32, align 4
  %13 = alloca %struct.RelFileLocator, align 4
  %14 = alloca i32, align 4
  %15 = alloca i32, align 4
  %16 = alloca i32, align 4
  %17 = getelementptr inbounds nuw { i64, i32 }, ptr %8, i32 0, i32 0
  store i64 %1, ptr %17, align 4
  %18 = getelementptr inbounds nuw { i64, i32 }, ptr %8, i32 0, i32 1
  store i32 %2, ptr %18, align 4
  call void @llvm.memcpy.p0.p0.i64(ptr align 4 %7, ptr align 4 %8, i64 12, i1 false)
  store ptr %0, ptr %9, align 8
  store i32 %3, ptr %10, align 4
  store i32 %4, ptr %11, align 4
  call void @llvm.lifetime.start.p0(i64 4, ptr %12) #10
  store i32 0, ptr %12, align 4
  br label %19

19:                                               ; preds = %82, %5
  %20 = load i32, ptr %12, align 4
  %21 = load ptr, ptr %9, align 8
  %22 = getelementptr inbounds nuw %struct.XLogReaderState, ptr %21, i32 0, i32 11
  %23 = load ptr, ptr %22, align 8
  %24 = getelementptr inbounds nuw %struct.DecodedXLogRecord, ptr %23, i32 0, i32 10
  %25 = load i32, ptr %24, align 4
  %26 = icmp sle i32 %20, %25
  br i1 %26, label %27, label %85

27:                                               ; preds = %19
  call void @llvm.lifetime.start.p0(i64 12, ptr %13) #10
  call void @llvm.lifetime.start.p0(i64 4, ptr %14) #10
  call void @llvm.lifetime.start.p0(i64 4, ptr %15) #10
  %28 = load ptr, ptr %9, align 8
  %29 = load i32, ptr %12, align 4
  %30 = trunc i32 %29 to i8
  %31 = call zeroext i1 @XLogRecGetBlockTagExtended(ptr noundef %28, i8 noundef zeroext %30, ptr noundef %13, ptr noundef %14, ptr noundef %15, ptr noundef null)
  br i1 %31, label %33, label %32

32:                                               ; preds = %27
  store i32 4, ptr %16, align 4
  br label %79

33:                                               ; preds = %27
  %34 = load i32, ptr %11, align 4
  %35 = icmp eq i32 %34, -1
  br i1 %35, label %40, label %36

36:                                               ; preds = %33
  %37 = load i32, ptr %11, align 4
  %38 = load i32, ptr %14, align 4
  %39 = icmp eq i32 %37, %38
  br i1 %39, label %40, label %78

40:                                               ; preds = %36, %33
  %41 = getelementptr inbounds nuw %struct.RelFileLocator, ptr %7, i32 0, i32 2
  %42 = load i32, ptr %41, align 4
  %43 = icmp eq i32 %42, 0
  br i1 %43, label %44, label %52

44:                                               ; preds = %40
  %45 = getelementptr inbounds nuw %struct.RelFileLocator, ptr %7, i32 0, i32 1
  %46 = load i32, ptr %45, align 4
  %47 = icmp eq i32 %46, 0
  br i1 %47, label %48, label %52

48:                                               ; preds = %44
  %49 = getelementptr inbounds nuw %struct.RelFileLocator, ptr %7, i32 0, i32 0
  %50 = load i32, ptr %49, align 4
  %51 = icmp eq i32 %50, 0
  br i1 %51, label %70, label %52

52:                                               ; preds = %48, %44, %40
  %53 = getelementptr inbounds nuw %struct.RelFileLocator, ptr %7, i32 0, i32 2
  %54 = load i32, ptr %53, align 4
  %55 = getelementptr inbounds nuw %struct.RelFileLocator, ptr %13, i32 0, i32 2
  %56 = load i32, ptr %55, align 4
  %57 = icmp eq i32 %54, %56
  br i1 %57, label %58, label %78

58:                                               ; preds = %52
  %59 = getelementptr inbounds nuw %struct.RelFileLocator, ptr %7, i32 0, i32 1
  %60 = load i32, ptr %59, align 4
  %61 = getelementptr inbounds nuw %struct.RelFileLocator, ptr %13, i32 0, i32 1
  %62 = load i32, ptr %61, align 4
  %63 = icmp eq i32 %60, %62
  br i1 %63, label %64, label %78

64:                                               ; preds = %58
  %65 = getelementptr inbounds nuw %struct.RelFileLocator, ptr %7, i32 0, i32 0
  %66 = load i32, ptr %65, align 4
  %67 = getelementptr inbounds nuw %struct.RelFileLocator, ptr %13, i32 0, i32 0
  %68 = load i32, ptr %67, align 4
  %69 = icmp eq i32 %66, %68
  br i1 %69, label %70, label %78

70:                                               ; preds = %64, %48
  %71 = load i32, ptr %10, align 4
  %72 = icmp eq i32 %71, -1
  br i1 %72, label %77, label %73

73:                                               ; preds = %70
  %74 = load i32, ptr %10, align 4
  %75 = load i32, ptr %15, align 4
  %76 = icmp eq i32 %74, %75
  br i1 %76, label %77, label %78

77:                                               ; preds = %73, %70
  store i1 true, ptr %6, align 1
  store i32 1, ptr %16, align 4
  br label %79

78:                                               ; preds = %73, %64, %58, %52, %36
  store i32 0, ptr %16, align 4
  br label %79

79:                                               ; preds = %78, %77, %32
  call void @llvm.lifetime.end.p0(i64 4, ptr %15) #10
  call void @llvm.lifetime.end.p0(i64 4, ptr %14) #10
  call void @llvm.lifetime.end.p0(i64 12, ptr %13) #10
  %80 = load i32, ptr %16, align 4
  switch i32 %80, label %86 [
    i32 0, label %81
    i32 4, label %82
  ]

81:                                               ; preds = %79
  br label %82

82:                                               ; preds = %81, %79
  %83 = load i32, ptr %12, align 4
  %84 = add i32 %83, 1
  store i32 %84, ptr %12, align 4
  br label %19, !llvm.loop !12

85:                                               ; preds = %19
  store i1 false, ptr %6, align 1
  store i32 1, ptr %16, align 4
  br label %86

86:                                               ; preds = %85, %79
  call void @llvm.lifetime.end.p0(i64 4, ptr %12) #10
  %87 = load i1, ptr %6, align 1
  ret i1 %87
}