; Function Attrs: nounwind uwtable
define internal fastcc noundef zeroext i1 @XLogRecordMatchesRelationBlock(ptr noundef nonnull %0, i64 %1, i32 %2, i32 noundef %3, i32 noundef %4) unnamed_addr #0 {
  %6 = alloca %struct.RelFileLocator, align 4
  %7 = alloca i32, align 4
  %8 = alloca i32, align 4
  %.sroa.014.0.extract.trunc = trunc i64 %1 to i32
  %.sroa.3.0.extract.shift = lshr i64 %1, 32
  %.sroa.3.0.extract.trunc = trunc nuw i64 %.sroa.3.0.extract.shift to i32
  %9 = getelementptr inbounds nuw i8, ptr %0, i64 104
  %10 = load ptr, ptr %9, align 8
  %11 = getelementptr inbounds nuw i8, ptr %10, i64 84
  %12 = load i32, ptr %11, align 4
  %.not34 = icmp sgt i32 %12, -1
  br i1 %.not34, label %.lr.ph, label %.loopexit

.lr.ph:                                           ; preds = %5
  %13 = icmp eq i32 %4, -1
  %14 = icmp eq i32 %2, 0
  %15 = icmp ult i64 %1, 4294967296
  %16 = icmp eq i32 %.sroa.014.0.extract.trunc, 0
  %17 = and i1 %15, %16
  %or.cond5 = select i1 %14, i1 %17, i1 false
  %18 = getelementptr inbounds nuw i8, ptr %6, i64 8
  %19 = getelementptr inbounds nuw i8, ptr %6, i64 4
  %20 = icmp eq i32 %3, -1
  %or.cond5.fr = freeze i1 %or.cond5
  br i1 %or.cond5.fr, label %.lr.ph.split.us, label %.lr.ph.split

.lr.ph.split.us:                                  ; preds = %.lr.ph
  br i1 %13, label %.lr.ph.split.us.split.us, label %.lr.ph.split.us.split

.lr.ph.split.us.split.us:                         ; preds = %.lr.ph.split.us, %26
  %.01935.us.us = phi i32 [ %27, %26 ], [ 0, %.lr.ph.split.us ]
  call void @llvm.lifetime.start.p0(i64 12, ptr nonnull %6) #16
  call void @llvm.lifetime.start.p0(i64 4, ptr nonnull %7) #16
  call void @llvm.lifetime.start.p0(i64 4, ptr nonnull %8) #16
  %21 = trunc i32 %.01935.us.us to i8
  %22 = call zeroext i1 @XLogRecGetBlockTagExtended(ptr noundef nonnull %0, i8 noundef zeroext %21, ptr noundef nonnull %6, ptr noundef nonnull %7, ptr noundef nonnull %8, ptr noundef null) #16
  br i1 %22, label %23, label %26

23:                                               ; preds = %.lr.ph.split.us.split.us
  %24 = load i32, ptr %8, align 4
  %25 = icmp eq i32 %3, %24
  %or.cond30.us.us = select i1 %20, i1 true, i1 %25
  br i1 %or.cond30.us.us, label %.split.us, label %26

26:                                               ; preds = %23, %.lr.ph.split.us.split.us
  call void @llvm.lifetime.end.p0(i64 4, ptr nonnull %8) #16
  call void @llvm.lifetime.end.p0(i64 4, ptr nonnull %7) #16
  call void @llvm.lifetime.end.p0(i64 12, ptr nonnull %6) #16
  %27 = add i32 %.01935.us.us, 1
  %28 = load ptr, ptr %9, align 8
  %29 = getelementptr inbounds nuw i8, ptr %28, i64 84
  %30 = load i32, ptr %29, align 4
  %.not.us.us.not = icmp sgt i32 %27, %30
  br i1 %.not.us.us.not, label %.loopexit, label %.lr.ph.split.us.split.us, !llvm.loop !13

.lr.ph.split.us.split:                            ; preds = %.lr.ph.split.us
  br i1 %20, label %.lr.ph.split.us.split.split.us, label %.lr.ph.split.us.split.split

.lr.ph.split.us.split.split.us:                   ; preds = %.lr.ph.split.us.split, %35
  %.01935.us.us61 = phi i32 [ %36, %35 ], [ 0, %.lr.ph.split.us.split ]
  call void @llvm.lifetime.start.p0(i64 12, ptr nonnull %6) #16
  call void @llvm.lifetime.start.p0(i64 4, ptr nonnull %7) #16
  call void @llvm.lifetime.start.p0(i64 4, ptr nonnull %8) #16
  %31 = trunc i32 %.01935.us.us61 to i8
  %32 = call zeroext i1 @XLogRecGetBlockTagExtended(ptr noundef nonnull %0, i8 noundef zeroext %31, ptr noundef nonnull %6, ptr noundef nonnull %7, ptr noundef nonnull %8, ptr noundef null) #16
  %33 = load i32, ptr %7, align 4
  %34 = icmp eq i32 %4, %33
  %or.cond = select i1 %32, i1 %34, i1 false
  br i1 %or.cond, label %.split.us, label %35

35:                                               ; preds = %.lr.ph.split.us.split.split.us
  call void @llvm.lifetime.end.p0(i64 4, ptr nonnull %8) #16
  call void @llvm.lifetime.end.p0(i64 4, ptr nonnull %7) #16
  call void @llvm.lifetime.end.p0(i64 12, ptr nonnull %6) #16
  %36 = add i32 %.01935.us.us61, 1
  %37 = load ptr, ptr %9, align 8
  %38 = getelementptr inbounds nuw i8, ptr %37, i64 84
  %39 = load i32, ptr %38, align 4
  %.not.us.us63.not = icmp sgt i32 %36, %39
  br i1 %.not.us.us63.not, label %.loopexit, label %.lr.ph.split.us.split.split.us, !llvm.loop !13

.lr.ph.split.us.split.split:                      ; preds = %.lr.ph.split.us.split, %46
  %.01935.us = phi i32 [ %47, %46 ], [ 0, %.lr.ph.split.us.split ]
  call void @llvm.lifetime.start.p0(i64 12, ptr nonnull %6) #16
  call void @llvm.lifetime.start.p0(i64 4, ptr nonnull %7) #16
  call void @llvm.lifetime.start.p0(i64 4, ptr nonnull %8) #16
  %40 = trunc i32 %.01935.us to i8
  %41 = call zeroext i1 @XLogRecGetBlockTagExtended(ptr noundef nonnull %0, i8 noundef zeroext %40, ptr noundef nonnull %6, ptr noundef nonnull %7, ptr noundef nonnull %8, ptr noundef null) #16
  %42 = load i32, ptr %7, align 4
  %43 = icmp eq i32 %4, %42
  %or.cond71 = select i1 %41, i1 %43, i1 false
  %44 = load i32, ptr %8, align 4
  %45 = icmp eq i32 %3, %44
  %or.cond73 = select i1 %or.cond71, i1 %45, i1 false
  br i1 %or.cond73, label %.split.us, label %46

46:                                               ; preds = %.lr.ph.split.us.split.split
  call void @llvm.lifetime.end.p0(i64 4, ptr nonnull %8) #16
  call void @llvm.lifetime.end.p0(i64 4, ptr nonnull %7) #16
  call void @llvm.lifetime.end.p0(i64 12, ptr nonnull %6) #16
  %47 = add i32 %.01935.us, 1
  %48 = load ptr, ptr %9, align 8
  %49 = getelementptr inbounds nuw i8, ptr %48, i64 84
  %50 = load i32, ptr %49, align 4
  %.not.us.not = icmp sgt i32 %47, %50
  br i1 %.not.us.not, label %.loopexit, label %.lr.ph.split.us.split.split, !llvm.loop !13

.lr.ph.split:                                     ; preds = %.lr.ph
  br i1 %13, label %.lr.ph.split.split.us, label %.lr.ph.split.split

.lr.ph.split.split.us:                            ; preds = %.lr.ph.split, %63
  %.01935.us39 = phi i32 [ %64, %63 ], [ 0, %.lr.ph.split ]
  call void @llvm.lifetime.start.p0(i64 12, ptr nonnull %6) #16
  call void @llvm.lifetime.start.p0(i64 4, ptr nonnull %7) #16
  call void @llvm.lifetime.start.p0(i64 4, ptr nonnull %8) #16
  %51 = trunc i32 %.01935.us39 to i8
  %52 = call zeroext i1 @XLogRecGetBlockTagExtended(ptr noundef nonnull %0, i8 noundef zeroext %51, ptr noundef nonnull %6, ptr noundef nonnull %7, ptr noundef nonnull %8, ptr noundef null) #16
  br i1 %52, label %53, label %63

53:                                               ; preds = %.lr.ph.split.split.us
  %54 = load i32, ptr %18, align 4
  %55 = icmp eq i32 %2, %54
  %56 = load i32, ptr %19, align 4
  %57 = icmp eq i32 %56, %.sroa.3.0.extract.trunc
  %or.cond26.us = select i1 %55, i1 %57, i1 false
  %58 = load i32, ptr %6, align 4
  %59 = icmp eq i32 %58, %.sroa.014.0.extract.trunc
  %or.cond28.us = select i1 %or.cond26.us, i1 %59, i1 false
  br i1 %or.cond28.us, label %60, label %63

60:                                               ; preds = %53
  %61 = load i32, ptr %8, align 4
  %62 = icmp eq i32 %3, %61
  %or.cond30.us41 = select i1 %20, i1 true, i1 %62
  br i1 %or.cond30.us41, label %.split.us, label %63

63:                                               ; preds = %60, %53, %.lr.ph.split.split.us
  call void @llvm.lifetime.end.p0(i64 4, ptr nonnull %8) #16
  call void @llvm.lifetime.end.p0(i64 4, ptr nonnull %7) #16
  call void @llvm.lifetime.end.p0(i64 12, ptr nonnull %6) #16
  %64 = add i32 %.01935.us39, 1
  %65 = load ptr, ptr %9, align 8
  %66 = getelementptr inbounds nuw i8, ptr %65, i64 84
  %67 = load i32, ptr %66, align 4
  %.not.us42.not = icmp sgt i32 %64, %67
  br i1 %.not.us42.not, label %.loopexit, label %.lr.ph.split.split.us, !llvm.loop !13

.lr.ph.split.split:                               ; preds = %.lr.ph.split
  br i1 %20, label %.lr.ph.split.split.split.us, label %.lr.ph.split.split.split

.lr.ph.split.split.split.us:                      ; preds = %.lr.ph.split.split, %79
  %.01935.us48 = phi i32 [ %80, %79 ], [ 0, %.lr.ph.split.split ]
  call void @llvm.lifetime.start.p0(i64 12, ptr nonnull %6) #16
  call void @llvm.lifetime.start.p0(i64 4, ptr nonnull %7) #16
  call void @llvm.lifetime.start.p0(i64 4, ptr nonnull %8) #16
  %68 = trunc i32 %.01935.us48 to i8
  %69 = call zeroext i1 @XLogRecGetBlockTagExtended(ptr noundef nonnull %0, i8 noundef zeroext %68, ptr noundef nonnull %6, ptr noundef nonnull %7, ptr noundef nonnull %8, ptr noundef null) #16
  %70 = load i32, ptr %7, align 4
  %71 = icmp eq i32 %4, %70
  %or.cond75 = select i1 %69, i1 %71, i1 false
  br i1 %or.cond75, label %72, label %79

72:                                               ; preds = %.lr.ph.split.split.split.us
  %73 = load i32, ptr %18, align 4
  %74 = icmp eq i32 %2, %73
  %75 = load i32, ptr %19, align 4
  %76 = icmp eq i32 %75, %.sroa.3.0.extract.trunc
  %or.cond26.us49 = select i1 %74, i1 %76, i1 false
  %77 = load i32, ptr %6, align 4
  %78 = icmp eq i32 %77, %.sroa.014.0.extract.trunc
  %or.cond28.us50 = select i1 %or.cond26.us49, i1 %78, i1 false
  br i1 %or.cond28.us50, label %.split.us, label %79

79:                                               ; preds = %72, %.lr.ph.split.split.split.us
  call void @llvm.lifetime.end.p0(i64 4, ptr nonnull %8) #16
  call void @llvm.lifetime.end.p0(i64 4, ptr nonnull %7) #16
  call void @llvm.lifetime.end.p0(i64 12, ptr nonnull %6) #16
  %80 = add i32 %.01935.us48, 1
  %81 = load ptr, ptr %9, align 8
  %82 = getelementptr inbounds nuw i8, ptr %81, i64 84
  %83 = load i32, ptr %82, align 4
  %.not.us52.not = icmp sgt i32 %80, %83
  br i1 %.not.us52.not, label %.loopexit, label %.lr.ph.split.split.split.us, !llvm.loop !13

.lr.ph.split.split.split:                         ; preds = %.lr.ph.split.split, %97
  %.01935 = phi i32 [ %98, %97 ], [ 0, %.lr.ph.split.split ]
  call void @llvm.lifetime.start.p0(i64 12, ptr nonnull %6) #16
  call void @llvm.lifetime.start.p0(i64 4, ptr nonnull %7) #16
  call void @llvm.lifetime.start.p0(i64 4, ptr nonnull %8) #16
  %84 = trunc i32 %.01935 to i8
  %85 = call zeroext i1 @XLogRecGetBlockTagExtended(ptr noundef nonnull %0, i8 noundef zeroext %84, ptr noundef nonnull %6, ptr noundef nonnull %7, ptr noundef nonnull %8, ptr noundef null) #16
  %86 = load i32, ptr %7, align 4
  %87 = icmp eq i32 %4, %86
  %or.cond77 = select i1 %85, i1 %87, i1 false
  br i1 %or.cond77, label %88, label %97

88:                                               ; preds = %.lr.ph.split.split.split
  %89 = load i32, ptr %18, align 4
  %90 = icmp eq i32 %2, %89
  %91 = load i32, ptr %19, align 4
  %92 = icmp eq i32 %91, %.sroa.3.0.extract.trunc
  %or.cond26 = select i1 %90, i1 %92, i1 false
  %93 = load i32, ptr %6, align 4
  %94 = icmp eq i32 %93, %.sroa.014.0.extract.trunc
  %or.cond28 = select i1 %or.cond26, i1 %94, i1 false
  %95 = load i32, ptr %8, align 4
  %96 = icmp eq i32 %3, %95
  %or.cond79 = select i1 %or.cond28, i1 %96, i1 false
  br i1 %or.cond79, label %.split.us, label %97

.split.us:                                        ; preds = %88, %72, %60, %.lr.ph.split.us.split.split, %.lr.ph.split.us.split.split.us, %23
  call void @llvm.lifetime.end.p0(i64 4, ptr nonnull %8) #16
  call void @llvm.lifetime.end.p0(i64 4, ptr nonnull %7) #16
  call void @llvm.lifetime.end.p0(i64 12, ptr nonnull %6) #16
  br label %.loopexit

97:                                               ; preds = %88, %.lr.ph.split.split.split
  call void @llvm.lifetime.end.p0(i64 4, ptr nonnull %8) #16
  call void @llvm.lifetime.end.p0(i64 4, ptr nonnull %7) #16
  call void @llvm.lifetime.end.p0(i64 12, ptr nonnull %6) #16
  %98 = add i32 %.01935, 1
  %99 = load ptr, ptr %9, align 8
  %100 = getelementptr inbounds nuw i8, ptr %99, i64 84
  %101 = load i32, ptr %100, align 4
  %.not.not = icmp sgt i32 %98, %101
  br i1 %.not.not, label %.loopexit, label %.lr.ph.split.split.split, !llvm.loop !13

.loopexit:                                        ; preds = %97, %79, %63, %46, %35, %26, %5, %.split.us
  %.not33 = phi i1 [ true, %.split.us ], [ false, %5 ], [ false, %26 ], [ false, %35 ], [ false, %46 ], [ false, %63 ], [ false, %79 ], [ false, %97 ]
  ret i1 %.not33
}